; Function Attrs: nofree norecurse nosync nounwind memory(argmem: readwrite) uwtable
define internal void @pseudocolor_filter_16_10(i32 noundef %0, i32 noundef %1, i32 noundef %2, ptr noundef readonly captures(none) %3, ptr noundef readonly captures(none) %4, ptr noundef writeonly captures(none) %5, i64 noundef %6, i64 noundef %7, i64 noundef %8, ptr noundef readonly captures(none) %9, float noundef %10) #8 {
  %12 = icmp sgt i32 %2, 0
  br i1 %12, label %.preheader.lr.ph, label %._crit_edge40

.preheader.lr.ph:                                 ; preds = %11
  %13 = icmp sgt i32 %1, 0
  %14 = sdiv i64 %6, 2
  %15 = sdiv i64 %7, 2
  %16 = sdiv i64 %8, 2
  br i1 %13, label %.preheader.us.preheader, label %._crit_edge40

.preheader.us.preheader:                          ; preds = %.preheader.lr.ph
  %wide.trip.count = zext nneg i32 %1 to i64
  br label %.preheader.us

.preheader.us:                                    ; preds = %.preheader.us.preheader, %._crit_edge.us
  %.039.us = phi ptr [ %37, %._crit_edge.us ], [ %3, %.preheader.us.preheader ]
  %.03038.us = phi i32 [ %40, %._crit_edge.us ], [ 0, %.preheader.us.preheader ]
  %.03237.us = phi ptr [ %39, %._crit_edge.us ], [ %5, %.preheader.us.preheader ]
  %.03336.us = phi ptr [ %38, %._crit_edge.us ], [ %4, %.preheader.us.preheader ]
  br label %17

17:                                               ; preds = %.preheader.us, %35
  %indvars.iv = phi i64 [ 0, %.preheader.us ], [ %indvars.iv.next, %35 ]
  %indvars.iv.tr = trunc i64 %indvars.iv to i32
  %18 = shl i32 %indvars.iv.tr, 1
  %19 = sext i32 %18 to i64
  %20 = getelementptr inbounds i16, ptr %.039.us, i64 %19
  %21 = load i16, ptr %20, align 2, !tbaa !93
  %22 = zext i16 %21 to i64
  %23 = getelementptr inbounds nuw float, ptr %9, i64 %22
  %24 = load float, ptr %23, align 4, !tbaa !62
  %25 = fptosi float %24 to i32
  %26 = icmp slt i32 %25, 0
  %.not.us = icmp slt i32 %0, %25
  %or.cond.us = or i1 %26, %.not.us
  %27 = getelementptr inbounds nuw i16, ptr %.03336.us, i64 %indvars.iv
  %28 = load i16, ptr %27, align 2, !tbaa !93
  br i1 %or.cond.us, label %35, label %29

29:                                               ; preds = %17
  %30 = uitofp i16 %28 to float
  %31 = uitofp nneg i32 %25 to float
  %32 = fsub nsz float %31, %30
  %33 = tail call nsz noundef float @llvm.fmuladd.f32(float %32, float %10, float %30)
  %34 = fptoui float %33 to i16
  br label %35

35:                                               ; preds = %17, %29
  %.sink = phi i16 [ %34, %29 ], [ %28, %17 ]
  %36 = getelementptr inbounds nuw i16, ptr %.03237.us, i64 %indvars.iv
  store i16 %.sink, ptr %36, align 2, !tbaa !93
  %indvars.iv.next = add nuw nsw i64 %indvars.iv, 1
  %exitcond.not = icmp eq i64 %indvars.iv.next, %wide.trip.count
  br i1 %exitcond.not, label %._crit_edge.us, label %17, !llvm.loop !97

._crit_edge.us:                                   ; preds = %35
  %37 = getelementptr inbounds i16, ptr %.039.us, i64 %14
  %38 = getelementptr inbounds i16, ptr %.03336.us, i64 %15
  %39 = getelementptr inbounds i16, ptr %.03237.us, i64 %16
  %40 = add nuw nsw i32 %.03038.us, 1
  %exitcond43.not = icmp eq i32 %40, %2
  br i1 %exitcond43.not, label %._crit_edge40, label %.preheader.us, !llvm.loop !98

._crit_edge40:                                    ; preds = %._crit_edge.us, %.preheader.lr.ph, %11
  ret void
}